; Function Attrs: mustprogress nofree norecurse nosync nounwind willreturn memory(read, inaccessiblemem: none) uwtable
define hidden noundef ptr @_ZN13InstanceKlass22method_with_orig_idnumEii(ptr nocapture noundef nonnull readonly align 8 dereferenceable(464) %0, i32 noundef %1, i32 noundef %2) local_unnamed_addr #3 align 2 {
  br label %4

4:                                                ; preds = %10, %3
  %.07.i = phi ptr [ %0, %3 ], [ %12, %10 ]
  %5 = getelementptr inbounds i8, ptr %.07.i, i64 224
  %6 = load ptr, ptr %5, align 8
  %7 = getelementptr inbounds i8, ptr %6, i64 64
  %8 = load i32, ptr %7, align 8
  %9 = icmp eq i32 %8, %2
  br i1 %9, label %_ZN13InstanceKlass17get_klass_versionEi.exit, label %10

10:                                               ; preds = %4
  %11 = getelementptr inbounds i8, ptr %.07.i, i64 376
  %12 = load ptr, ptr %11, align 8
  %.not.i = icmp eq ptr %12, null
  br i1 %.not.i, label %_ZN13InstanceKlass22method_with_orig_idnumEi.exit, label %4, !llvm.loop !81

_ZN13InstanceKlass17get_klass_versionEi.exit:     ; preds = %4
  %13 = getelementptr inbounds i8, ptr %.07.i, i64 400
  %14 = load ptr, ptr %13, align 8
  %15 = load i32, ptr %14, align 8
  %.not.i7 = icmp sgt i32 %15, %1
  br i1 %.not.i7, label %16, label %_ZN13InstanceKlass22method_with_orig_idnumEi.exit

16:                                               ; preds = %_ZN13InstanceKlass17get_klass_versionEi.exit
  %17 = getelementptr inbounds i8, ptr %14, i64 8
  %18 = sext i32 %1 to i64
  %19 = getelementptr inbounds ptr, ptr %17, i64 %18
  %20 = load ptr, ptr %19, align 8
  %.not16.i = icmp eq ptr %20, null
  br i1 %.not16.i, label %28, label %21

21:                                               ; preds = %16
  %22 = getelementptr inbounds i8, ptr %20, i64 8
  %23 = load ptr, ptr %22, align 8
  %24 = getelementptr inbounds i8, ptr %23, i64 50
  %25 = load i16, ptr %24, align 2
  %26 = zext i16 %25 to i32
  %27 = icmp eq i32 %26, %1
  br i1 %27, label %_ZN13InstanceKlass22method_with_orig_idnumEi.exit, label %28

28:                                               ; preds = %21, %16
  %29 = icmp sgt i32 %15, 0
  br i1 %29, label %.lr.ph.preheader.i, label %_ZN13InstanceKlass22method_with_orig_idnumEi.exit

.lr.ph.preheader.i:                               ; preds = %28
  %wide.trip.count.i = zext nneg i32 %15 to i64
  br label %.lr.ph.i

30:                                               ; preds = %.lr.ph.i
  %indvars.iv.next.i = add nuw nsw i64 %indvars.iv.i, 1
  %exitcond.not.i = icmp eq i64 %indvars.iv.next.i, %wide.trip.count.i
  br i1 %exitcond.not.i, label %_ZN13InstanceKlass22method_with_orig_idnumEi.exit, label %.lr.ph.i, !llvm.loop !113

.lr.ph.i:                                         ; preds = %30, %.lr.ph.preheader.i
  %indvars.iv.i = phi i64 [ 0, %.lr.ph.preheader.i ], [ %indvars.iv.next.i, %30 ]
  %31 = getelementptr inbounds ptr, ptr %17, i64 %indvars.iv.i
  %32 = load ptr, ptr %31, align 8
  %33 = getelementptr inbounds i8, ptr %32, i64 8
  %34 = load ptr, ptr %33, align 8
  %35 = getelementptr inbounds i8, ptr %34, i64 50
  %36 = load i16, ptr %35, align 2
  %37 = zext i16 %36 to i32
  %38 = icmp eq i32 %37, %1
  br i1 %38, label %_ZN13InstanceKlass22method_with_orig_idnumEi.exit, label %30

_ZN13InstanceKlass22method_with_orig_idnumEi.exit: ; preds = %10, %.lr.ph.i, %30, %28, %21, %_ZN13InstanceKlass17get_klass_versionEi.exit
  %.0 = phi ptr [ null, %_ZN13InstanceKlass17get_klass_versionEi.exit ], [ %20, %21 ], [ null, %28 ], [ null, %30 ], [ %32, %.lr.ph.i ], [ null, %10 ]
  ret ptr %.0
}